target datalayout = "e-m:e-p270:32:32-p271:32:32-p272:64:64-i64:64-i128:128-f80:128-n8:16:32:64-S128"
target triple = "x86_64-pc-linux-gnu"

%union.SourceSpan = type { i64 }
%struct.SemaContext_ = type { ptr, ptr, ptr, %struct.CallEnv, ptr, %union.SourceSpan, i32, i32, ptr, i32, ptr, i32, i32, ptr, ptr, i32, %struct.anon.85, ptr, ptr, ptr, %struct.DynamicScope_, ptr }
%struct.CallEnv = type { i16, ptr, %union.anon.54 }
%union.anon.54 = type { ptr }
%struct.anon.85 = type { i32, ptr, ptr, ptr, ptr, ptr, ptr, ptr, ptr, ptr, i8, ptr }
%struct.DynamicScope_ = type { i32, i8, i32, i32, i32, i32, i32, ptr, i32 }
%struct.VHeader_ = type { i32, i32, [0 x i8] }
%struct.Expr_ = type { ptr, %union.SourceSpan, i16, %union.anon.61 }
%union.anon.61 = type { %struct.ExprAnySwitch }
%struct.ExprAnySwitch = type { i8, %union.anon.63 }
%union.anon.63 = type { %struct.anon.64 }
%struct.anon.64 = type { ptr, %union.SourceSpan, ptr }

; Function Attrs: nounwind uwtable
define internal void @vec_pop(ptr noundef %0) #0 {
  %2 = alloca ptr, align 8
  %3 = alloca ptr, align 8
  store ptr %0, ptr %2, align 8
  %4 = load ptr, ptr %2, align 8
  store ptr %4, ptr %3, align 8
  %5 = load ptr, ptr %3, align 8
  %6 = getelementptr inbounds %struct.VHeader_, ptr %5, i64 -1
  %7 = getelementptr inbounds %struct.VHeader_, ptr %6, i32 0, i32 0
  %8 = load i32, ptr %7, align 4
  %9 = add i32 %8, -1
  store i32 %9, ptr %7, align 4
  ret void
}

; Function Attrs: nounwind uwtable
define dso_local ptr @sema_expand_vasplat_exprs(ptr noundef %0, ptr noundef %1) #0 {
  %3 = alloca i32, align 4
  %4 = alloca ptr, align 8
  %5 = alloca ptr, align 8
  %6 = alloca i32, align 4
  %7 = alloca ptr, align 8
  %8 = alloca ptr, align 8
  %9 = alloca ptr, align 8
  %10 = alloca ptr, align 8
  %11 = alloca ptr, align 8
  %12 = alloca i32, align 4
  %13 = alloca i32, align 4
  %14 = alloca i32, align 4
  %15 = alloca i32, align 4
  %16 = alloca i32, align 4
  %17 = alloca i32, align 4
  %18 = alloca i32, align 4
  %19 = alloca i32, align 4
  %20 = alloca i32, align 4
  %21 = alloca ptr, align 8
  %22 = alloca ptr, align 8
  %23 = alloca i32, align 4
  %24 = alloca ptr, align 8
  %25 = alloca ptr, align 8
  %26 = alloca ptr, align 8
  %27 = alloca ptr, align 8
  %28 = alloca ptr, align 8
  %29 = alloca i32, align 4
  %30 = alloca i8, align 1
  %31 = alloca i32, align 4
  store ptr %0, ptr %27, align 8
  store ptr %1, ptr %28, align 8
  %32 = load ptr, ptr %27, align 8
  %33 = icmp ne ptr %32, null
  br i1 %33, label %34, label %39

34:                                               ; preds = %2
  %35 = load ptr, ptr %27, align 8
  %36 = getelementptr inbounds %struct.SemaContext_, ptr %35, i32 0, i32 4
  %37 = load ptr, ptr %36, align 8
  %38 = icmp ne ptr %37, null
  br i1 %38, label %41, label %39

39:                                               ; preds = %34, %2
  %40 = load ptr, ptr %28, align 8
  store ptr %40, ptr %26, align 8
  br label %213

41:                                               ; preds = %34
  %42 = load ptr, ptr %28, align 8
  store ptr %42, ptr %21, align 8
  %43 = load ptr, ptr %21, align 8
  %44 = icmp ne ptr %43, null
  br i1 %44, label %46, label %45

45:                                               ; preds = %41
  store i32 0, ptr %20, align 4
  br label %51

46:                                               ; preds = %41
  %47 = load ptr, ptr %21, align 8
  store ptr %47, ptr %22, align 8
  %48 = load ptr, ptr %22, align 8
  %49 = getelementptr inbounds %struct.VHeader_, ptr %48, i64 -1
  %50 = load i32, ptr %49, align 4
  store i32 %50, ptr %20, align 4
  br label %51

51:                                               ; preds = %46, %45
  %52 = load i32, ptr %20, align 4
  store i32 %52, ptr %29, align 4
  br label %53

53:                                               ; preds = %208, %51
  store i8 0, ptr %30, align 1
  store i32 0, ptr %31, align 4
  br label %54

54:                                               ; preds = %204, %53
  %55 = load i32, ptr %31, align 4
  %56 = load i32, ptr %29, align 4
  %57 = icmp ult i32 %55, %56
  br i1 %57, label %58, label %207

58:                                               ; preds = %54
  %59 = load ptr, ptr %28, align 8
  %60 = load i32, ptr %31, align 4
  %61 = zext i32 %60 to i64
  %62 = getelementptr inbounds ptr, ptr %59, i64 %61
  %63 = load ptr, ptr %62, align 8
  %64 = getelementptr inbounds %struct.Expr_, ptr %63, i32 0, i32 2
  %65 = load i16, ptr %64, align 8
  %66 = and i16 %65, 255
  %67 = zext i16 %66 to i32
  %68 = icmp eq i32 %67, 65
  br i1 %68, label %69, label %203

69:                                               ; preds = %58
  %70 = load ptr, ptr %27, align 8
  %71 = load ptr, ptr %28, align 8
  %72 = load i32, ptr %31, align 4
  store ptr %70, ptr %10, align 8
  store ptr %71, ptr %11, align 8
  store i32 %72, ptr %12, align 4
  %73 = load ptr, ptr %11, align 8
  store ptr %73, ptr %4, align 8
  %74 = load ptr, ptr %4, align 8
  %75 = icmp ne ptr %74, null
  br i1 %75, label %77, label %76

76:                                               ; preds = %69
  store i32 0, ptr %3, align 4
  br label %82

77:                                               ; preds = %69
  %78 = load ptr, ptr %4, align 8
  store ptr %78, ptr %5, align 8
  %79 = load ptr, ptr %5, align 8
  %80 = getelementptr inbounds %struct.VHeader_, ptr %79, i64 -1
  %81 = load i32, ptr %80, align 4
  store i32 %81, ptr %3, align 4
  br label %82

82:                                               ; preds = %77, %76
  %83 = load i32, ptr %3, align 4
  store i32 %83, ptr %13, align 4
  %84 = load i32, ptr %12, align 4
  %85 = load i32, ptr %13, align 4
  %86 = sub i32 %85, 1
  %87 = icmp eq i32 %84, %86
  br i1 %87, label %88, label %98

88:                                               ; preds = %82
  %89 = load ptr, ptr %11, align 8
  call void @vec_pop(ptr noundef %89)
  %90 = load ptr, ptr %10, align 8
  %91 = load ptr, ptr %11, align 8
  %92 = load ptr, ptr %11, align 8
  %93 = load i32, ptr %12, align 4
  %94 = zext i32 %93 to i64
  %95 = getelementptr inbounds ptr, ptr %92, i64 %94
  %96 = load ptr, ptr %95, align 8
  %97 = call ptr @sema_vasplat_append(ptr noundef %90, ptr noundef %91, ptr noundef %96)
  store ptr %97, ptr %9, align 8
  br label %186

98:                                               ; preds = %82
  %99 = load ptr, ptr %10, align 8
  %100 = load ptr, ptr %11, align 8
  %101 = load ptr, ptr %11, align 8
  %102 = load i32, ptr %12, align 4
  %103 = zext i32 %102 to i64
  %104 = getelementptr inbounds ptr, ptr %101, i64 %103
  %105 = load ptr, ptr %104, align 8
  %106 = call ptr @sema_vasplat_append(ptr noundef %99, ptr noundef %100, ptr noundef %105)
  store ptr %106, ptr %11, align 8
  %107 = load ptr, ptr %11, align 8
  %108 = icmp ne ptr %107, null
  br i1 %108, label %110, label %109

109:                                              ; preds = %98
  store ptr null, ptr %9, align 8
  br label %186

110:                                              ; preds = %98
  %111 = load ptr, ptr %11, align 8
  store ptr %111, ptr %7, align 8
  %112 = load ptr, ptr %7, align 8
  %113 = icmp ne ptr %112, null
  br i1 %113, label %115, label %114

114:                                              ; preds = %110
  store i32 0, ptr %6, align 4
  br label %120

115:                                              ; preds = %110
  %116 = load ptr, ptr %7, align 8
  store ptr %116, ptr %8, align 8
  %117 = load ptr, ptr %8, align 8
  %118 = getelementptr inbounds %struct.VHeader_, ptr %117, i64 -1
  %119 = load i32, ptr %118, align 4
  store i32 %119, ptr %6, align 4
  br label %120

120:                                              ; preds = %115, %114
  %121 = load i32, ptr %6, align 4
  store i32 %121, ptr %14, align 4
  %122 = load i32, ptr %14, align 4
  %123 = load i32, ptr %13, align 4
  %124 = sub i32 %122, %123
  store i32 %124, ptr %15, align 4
  %125 = load i32, ptr %15, align 4
  %126 = icmp eq i32 %125, 0
  br i1 %126, label %127, label %150

127:                                              ; preds = %120
  %128 = load i32, ptr %12, align 4
  %129 = add i32 %128, 1
  store i32 %129, ptr %16, align 4
  br label %130

130:                                              ; preds = %134, %127
  %131 = load i32, ptr %16, align 4
  %132 = load i32, ptr %13, align 4
  %133 = icmp ult i32 %131, %132
  br i1 %133, label %134, label %147

134:                                              ; preds = %130
  %135 = load ptr, ptr %11, align 8
  %136 = load i32, ptr %16, align 4
  %137 = zext i32 %136 to i64
  %138 = getelementptr inbounds ptr, ptr %135, i64 %137
  %139 = load ptr, ptr %138, align 8
  %140 = load ptr, ptr %11, align 8
  %141 = load i32, ptr %16, align 4
  %142 = sub i32 %141, 1
  %143 = zext i32 %142 to i64
  %144 = getelementptr inbounds ptr, ptr %140, i64 %143
  store ptr %139, ptr %144, align 8
  %145 = load i32, ptr %16, align 4
  %146 = add i32 %145, 1
  store i32 %146, ptr %16, align 4
  br label %130, !llvm.loop !26

147:                                              ; preds = %130
  %148 = load ptr, ptr %11, align 8
  call void @vec_pop(ptr noundef %148)
  %149 = load ptr, ptr %11, align 8
  store ptr %149, ptr %9, align 8
  br label %186

150:                                              ; preds = %120
  store i32 0, ptr %17, align 4
  br label %151

151:                                              ; preds = %155, %150
  %152 = load i32, ptr %17, align 4
  %153 = load i32, ptr %15, align 4
  %154 = icmp ult i32 %152, %153
  br i1 %154, label %155, label %183

155:                                              ; preds = %151
  %156 = load i32, ptr %12, align 4
  %157 = load i32, ptr %17, align 4
  %158 = add i32 %156, %157
  store i32 %158, ptr %18, align 4
  %159 = load i32, ptr %13, align 4
  %160 = load i32, ptr %17, align 4
  %161 = add i32 %159, %160
  store i32 %161, ptr %19, align 4
  %162 = load ptr, ptr %11, align 8
  %163 = load i32, ptr %19, align 4
  %164 = zext i32 %163 to i64
  %165 = getelementptr inbounds ptr, ptr %162, i64 %164
  %166 = load ptr, ptr %165, align 8
  %167 = load ptr, ptr %11, align 8
  %168 = load i32, ptr %18, align 4
  %169 = zext i32 %168 to i64
  %170 = getelementptr inbounds ptr, ptr %167, i64 %169
  store ptr %166, ptr %170, align 8
  %171 = load ptr, ptr %11, align 8
  %172 = load i32, ptr %18, align 4
  %173 = add i32 %172, 1
  %174 = zext i32 %173 to i64
  %175 = getelementptr inbounds ptr, ptr %171, i64 %174
  %176 = load ptr, ptr %175, align 8
  %177 = load ptr, ptr %11, align 8
  %178 = load i32, ptr %19, align 4
  %179 = zext i32 %178 to i64
  %180 = getelementptr inbounds ptr, ptr %177, i64 %179
  store ptr %176, ptr %180, align 8
  %181 = load i32, ptr %17, align 4
  %182 = add i32 %181, 1
  store i32 %182, ptr %17, align 4
  br label %151, !llvm.loop !27

183:                                              ; preds = %151
  %184 = load ptr, ptr %11, align 8
  call void @vec_pop(ptr noundef %184)
  %185 = load ptr, ptr %11, align 8
  store ptr %185, ptr %9, align 8
  br label %186

186:                                              ; preds = %183, %147, %109, %88
  %187 = load ptr, ptr %9, align 8
  store ptr %187, ptr %28, align 8
  %188 = load ptr, ptr %28, align 8
  %189 = icmp ne ptr %188, null
  br i1 %189, label %191, label %190

190:                                              ; preds = %186
  store ptr null, ptr %26, align 8
  br label %213

191:                                              ; preds = %186
  %192 = load ptr, ptr %28, align 8
  store ptr %192, ptr %24, align 8
  %193 = load ptr, ptr %24, align 8
  %194 = icmp ne ptr %193, null
  br i1 %194, label %196, label %195

195:                                              ; preds = %191
  store i32 0, ptr %23, align 4
  br label %201

196:                                              ; preds = %191
  %197 = load ptr, ptr %24, align 8
  store ptr %197, ptr %25, align 8
  %198 = load ptr, ptr %25, align 8
  %199 = getelementptr inbounds %struct.VHeader_, ptr %198, i64 -1
  %200 = load i32, ptr %199, align 4
  store i32 %200, ptr %23, align 4
  br label %201

201:                                              ; preds = %196, %195
  %202 = load i32, ptr %23, align 4
  store i32 %202, ptr %29, align 4
  store i8 1, ptr %30, align 1
  br label %207

203:                                              ; preds = %58
  br label %204

204:                                              ; preds = %203
  %205 = load i32, ptr %31, align 4
  %206 = add i32 %205, 1
  store i32 %206, ptr %31, align 4
  br label %54, !llvm.loop !28

207:                                              ; preds = %201, %54
  br label %208

208:                                              ; preds = %207
  %209 = load i8, ptr %30, align 1
  %210 = trunc i8 %209 to i1
  br i1 %210, label %53, label %211, !llvm.loop !29

211:                                              ; preds = %208
  %212 = load ptr, ptr %28, align 8
  store ptr %212, ptr %26, align 8
  br label %213

213:                                              ; preds = %211, %190, %39
  %214 = load ptr, ptr %26, align 8
  ret ptr %214
}