; Function Attrs: nounwind uwtable
define dso_local ptr @sema_expand_vasplat_exprs(ptr noundef %0, ptr noundef %1) local_unnamed_addr #0 {
  %.not = icmp eq ptr %0, null
  br i1 %.not, label %.thread104, label %3

3:                                                ; preds = %2
  %4 = getelementptr inbounds i8, ptr %0, i64 48
  %5 = load ptr, ptr %4, align 8
  %.not93 = icmp eq ptr %5, null
  br i1 %.not93, label %.thread104, label %6

6:                                                ; preds = %3
  %.not94 = icmp eq ptr %1, null
  br i1 %.not94, label %10, label %7

7:                                                ; preds = %6
  %8 = getelementptr inbounds i8, ptr %1, i64 -8
  %9 = load i32, ptr %8, align 4
  br label %10

10:                                               ; preds = %6, %7
  %.087 = phi i32 [ %9, %7 ], [ 0, %6 ]
  %.not121150 = icmp eq i32 %.087, 0
  br i1 %.not121150, label %.thread104, label %.lr.ph.preheader

.lr.ph.preheader:                                 ; preds = %10, %.thread
  %.078152 = phi i32 [ %51, %.thread ], [ %.087, %10 ]
  %.079151 = phi ptr [ %.084100, %.thread ], [ %1, %10 ]
  %wide.trip.count = zext i32 %.078152 to i64
  br label %.lr.ph

.lr.ph:                                           ; preds = %.lr.ph.preheader, %50
  %indvars.iv133 = phi i64 [ 1, %.lr.ph.preheader ], [ %indvars.iv.next134, %50 ]
  %indvars.iv = phi i64 [ 0, %.lr.ph.preheader ], [ %indvars.iv.next, %50 ]
  %11 = getelementptr inbounds ptr, ptr %.079151, i64 %indvars.iv
  %12 = load ptr, ptr %11, align 8
  %13 = getelementptr inbounds i8, ptr %12, i64 16
  %14 = load i16, ptr %13, align 8
  %15 = and i16 %14, 255
  %16 = icmp eq i16 %15, 65
  br i1 %16, label %17, label %50

17:                                               ; preds = %.lr.ph
  %18 = trunc nuw i64 %indvars.iv to i32
  %19 = getelementptr inbounds i8, ptr %.079151, i64 -8
  %20 = load i32, ptr %19, align 4
  %21 = add i32 %20, -1
  %22 = icmp eq i32 %21, %18
  br i1 %22, label %48, label %23

23:                                               ; preds = %17
  %24 = tail call fastcc ptr @sema_vasplat_append(ptr noundef nonnull %0, ptr noundef nonnull %.079151, ptr noundef nonnull %12)
  %.not96 = icmp eq ptr %24, null
  br i1 %.not96, label %.thread104, label %25

25:                                               ; preds = %23
  %26 = getelementptr inbounds i8, ptr %24, i64 -8
  %27 = load i32, ptr %26, align 4
  %28 = icmp eq i32 %27, %20
  br i1 %28, label %.preheader, label %.lr.ph115.preheader

.lr.ph115.preheader:                              ; preds = %25
  %29 = sub i32 %27, %20
  %wide.trip.count131 = zext i32 %29 to i64
  br label %.lr.ph115

.preheader:                                       ; preds = %25
  %.086116 = add i32 %18, 1
  %30 = icmp ult i32 %.086116, %20
  br i1 %30, label %.lr.ph119, label %._crit_edge120

.lr.ph119:                                        ; preds = %.preheader, %.lr.ph119
  %indvars.iv136 = phi i64 [ %indvars.iv.next137, %.lr.ph119 ], [ %indvars.iv133, %.preheader ]
  %.086.in117 = phi i64 [ %indvars.iv136, %.lr.ph119 ], [ %indvars.iv, %.preheader ]
  %31 = getelementptr inbounds ptr, ptr %24, i64 %indvars.iv136
  %32 = load ptr, ptr %31, align 8
  %33 = and i64 %.086.in117, 4294967295
  %34 = getelementptr inbounds ptr, ptr %24, i64 %33
  store ptr %32, ptr %34, align 8
  %indvars.iv.next137 = add nuw nsw i64 %indvars.iv136, 1
  %lftr.wideiv = trunc i64 %indvars.iv.next137 to i32
  %exitcond139.not = icmp eq i32 %20, %lftr.wideiv
  br i1 %exitcond139.not, label %._crit_edge120, label %.lr.ph119, !llvm.loop !28

._crit_edge120:                                   ; preds = %.lr.ph119, %.preheader
  store i32 %21, ptr %26, align 4
  br label %.thread

.lr.ph115:                                        ; preds = %.lr.ph115.preheader, %.lr.ph115
  %indvars.iv128 = phi i64 [ 0, %.lr.ph115.preheader ], [ %indvars.iv.next129, %.lr.ph115 ]
  %35 = trunc nuw i64 %indvars.iv128 to i32
  %36 = add i32 %35, %18
  %37 = add i32 %20, %35
  %38 = zext i32 %37 to i64
  %39 = getelementptr inbounds ptr, ptr %24, i64 %38
  %40 = load ptr, ptr %39, align 8
  %41 = zext i32 %36 to i64
  %42 = getelementptr inbounds ptr, ptr %24, i64 %41
  store ptr %40, ptr %42, align 8
  %43 = add i32 %36, 1
  %44 = zext i32 %43 to i64
  %45 = getelementptr inbounds ptr, ptr %24, i64 %44
  %46 = load ptr, ptr %45, align 8
  store ptr %46, ptr %39, align 8
  %indvars.iv.next129 = add nuw nsw i64 %indvars.iv128, 1
  %exitcond132.not = icmp eq i64 %indvars.iv.next129, %wide.trip.count131
  br i1 %exitcond132.not, label %._crit_edge, label %.lr.ph115, !llvm.loop !29

._crit_edge:                                      ; preds = %.lr.ph115
  %47 = add i32 %27, -1
  store i32 %47, ptr %26, align 4
  br label %.thread

48:                                               ; preds = %17
  store i32 %18, ptr %19, align 4
  %49 = tail call fastcc ptr @sema_vasplat_append(ptr noundef nonnull %0, ptr noundef nonnull %.079151, ptr noundef nonnull %12)
  %.not97 = icmp eq ptr %49, null
  br i1 %.not97, label %.thread104, label %..thread_crit_edge

..thread_crit_edge:                               ; preds = %48
  %.phi.trans.insert = getelementptr inbounds i8, ptr %49, i64 -8
  %.pre = load i32, ptr %.phi.trans.insert, align 4
  br label %.thread

50:                                               ; preds = %.lr.ph
  %indvars.iv.next = add nuw nsw i64 %indvars.iv, 1
  %exitcond.not = icmp eq i64 %indvars.iv.next, %wide.trip.count
  %indvars.iv.next134 = add nuw nsw i64 %indvars.iv133, 1
  br i1 %exitcond.not, label %.thread104, label %.lr.ph, !llvm.loop !30

.thread:                                          ; preds = %..thread_crit_edge, %._crit_edge, %._crit_edge120
  %51 = phi i32 [ %.pre, %..thread_crit_edge ], [ %21, %._crit_edge120 ], [ %47, %._crit_edge ]
  %.084100 = phi ptr [ %49, %..thread_crit_edge ], [ %24, %._crit_edge120 ], [ %24, %._crit_edge ]
  %.not121 = icmp eq i32 %51, 0
  br i1 %.not121, label %.thread104, label %.lr.ph.preheader, !llvm.loop !31

.thread104:                                       ; preds = %.thread, %48, %23, %50, %10, %2, %3
  %.082 = phi ptr [ %1, %3 ], [ %1, %2 ], [ %1, %10 ], [ %.079151, %50 ], [ null, %23 ], [ null, %48 ], [ %.084100, %.thread ]
  ret ptr %.082
}